target datalayout = "e-m:e-p270:32:32-p271:32:32-p272:64:64-i64:64-i128:128-f80:128-n8:16:32:64-S128"
target triple = "x86_64-pc-linux-gnu"

%struct.ossl_param_st = type { ptr, i32, ptr, i64, i64 }

@.str = private unnamed_addr constant [8 x i8] c"default\00", align 1
@.str.1 = private unnamed_addr constant [6 x i8] c"DHKEM\00", align 1
@libctx = internal global ptr null, align 8
@nullprov = internal global ptr null, align 8
@libprov = internal global ptr null, align 8
@opparam = internal global [2 x %struct.ossl_param_st] zeroinitializer, align 16
@.str.2 = private unnamed_addr constant [10 x i8] c"operation\00", align 1
@.str.3 = private unnamed_addr constant [38 x i8] c"../openssl/test/evp_pkey_dhkem_test.c\00", align 1
@.str.4 = private unnamed_addr constant [73 x i8] c"rkey[TEST_KEYTYPE_P256] = EVP_PKEY_Q_keygen(libctx, NULL, \22EC\22, \22P-256\22)\00", align 1
@.str.5 = private unnamed_addr constant [3 x i8] c"EC\00", align 1
@.str.6 = private unnamed_addr constant [6 x i8] c"P-256\00", align 1
@rkey = internal global [2 x ptr] zeroinitializer, align 16
@.str.7 = private unnamed_addr constant [70 x i8] c"rkey[TEST_KEYTYPE_X25519] = EVP_PKEY_Q_keygen(libctx, NULL, \22X25519\22)\00", align 1
@.str.8 = private unnamed_addr constant [7 x i8] c"X25519\00", align 1
@.str.9 = private unnamed_addr constant [92 x i8] c"rctx[TEST_KEYTYPE_P256] = EVP_PKEY_CTX_new_from_pkey(libctx, rkey[TEST_KEYTYPE_P256], NULL)\00", align 1
@rctx = internal global [2 x ptr] zeroinitializer, align 16
@.str.10 = private unnamed_addr constant [96 x i8] c"rctx[TEST_KEYTYPE_X25519] = EVP_PKEY_CTX_new_from_pkey(libctx, rkey[TEST_KEYTYPE_X25519], NULL)\00", align 1
@.str.11 = private unnamed_addr constant [23 x i8] c"test_dhkem_encapsulate\00", align 1
@.str.12 = private unnamed_addr constant [23 x i8] c"test_dhkem_decapsulate\00", align 1
@.str.13 = private unnamed_addr constant [15 x i8] c"test_settables\00", align 1
@.str.14 = private unnamed_addr constant [19 x i8] c"test_init_multiple\00", align 1
@.str.15 = private unnamed_addr constant [28 x i8] c"test_auth_key_type_mismatch\00", align 1
@.str.16 = private unnamed_addr constant [22 x i8] c"test_no_operation_set\00", align 1
@.str.17 = private unnamed_addr constant [15 x i8] c"test_ikm_small\00", align 1
@.str.18 = private unnamed_addr constant [22 x i8] c"test_input_size_small\00", align 1
@.str.19 = private unnamed_addr constant [17 x i8] c"test_null_params\00", align 1
@.str.20 = private unnamed_addr constant [16 x i8] c"test_set_params\00", align 1
@.str.21 = private unnamed_addr constant [14 x i8] c"test_nopublic\00", align 1
@.str.22 = private unnamed_addr constant [18 x i8] c"test_noauthpublic\00", align 1
@.str.23 = private unnamed_addr constant [24 x i8] c"test_ec_dhkem_derivekey\00", align 1
@.str.24 = private unnamed_addr constant [15 x i8] c"test_ec_noikme\00", align 1
@.str.25 = private unnamed_addr constant [32 x i8] c"test_ec_auth_key_curve_mismatch\00", align 1
@.str.26 = private unnamed_addr constant [28 x i8] c"test_ec_invalid_private_key\00", align 1
@.str.27 = private unnamed_addr constant [29 x i8] c"test_ec_dhkem_derivekey_fail\00", align 1
@.str.28 = private unnamed_addr constant [22 x i8] c"test_ec_curve_nonnist\00", align 1
@.str.29 = private unnamed_addr constant [26 x i8] c"test_ec_curve_unsupported\00", align 1
@.str.30 = private unnamed_addr constant [33 x i8] c"test_ec_invalid_decap_enc_buffer\00", align 1
@.str.31 = private unnamed_addr constant [28 x i8] c"test_ec_public_key_infinity\00", align 1
@.str.32 = private unnamed_addr constant [18 x i8] c"test_ec_badpublic\00", align 1
@.str.33 = private unnamed_addr constant [16 x i8] c"test_ec_badauth\00", align 1
@.str.34 = private unnamed_addr constant [25 x i8] c"test_ecx_dhkem_derivekey\00", align 1
@.str.35 = private unnamed_addr constant [33 x i8] c"test_ecx_auth_key_curve_mismatch\00", align 1
@.str.36 = private unnamed_addr constant [26 x i8] c"test_ed_curve_unsupported\00", align 1

; Function Attrs: nounwind uwtable
define dso_local i32 @setup_tests() #0 {
  %1 = alloca i32, align 4
  %2 = alloca ptr, align 8
  %3 = alloca ptr, align 8
  %4 = alloca ptr, align 8
  %5 = alloca i32, align 4
  %6 = alloca %struct.ossl_param_st, align 8
  %7 = alloca %struct.ossl_param_st, align 8
  call void @llvm.lifetime.start.p0(i64 8, ptr %2) #6
  store ptr @.str, ptr %2, align 8, !tbaa !4
  call void @llvm.lifetime.start.p0(i64 8, ptr %3) #6
  store ptr null, ptr %3, align 8, !tbaa !4
  call void @llvm.lifetime.start.p0(i64 8, ptr %4) #6
  store ptr @.str.1, ptr %4, align 8, !tbaa !4
  %8 = load ptr, ptr %3, align 8, !tbaa !4
  %9 = load ptr, ptr %2, align 8, !tbaa !4
  %10 = call i32 @test_get_libctx(ptr noundef @libctx, ptr noundef @nullprov, ptr noundef %8, ptr noundef @libprov, ptr noundef %9)
  %11 = icmp ne i32 %10, 0
  br i1 %11, label %13, label %12

12:                                               ; preds = %0
  store i32 0, ptr %1, align 4
  store i32 1, ptr %5, align 4
  br label %42

13:                                               ; preds = %0
  call void @llvm.lifetime.start.p0(i64 40, ptr %6) #6
  %14 = load ptr, ptr %4, align 8, !tbaa !4
  call void @OSSL_PARAM_construct_utf8_string(ptr dead_on_unwind writable sret(%struct.ossl_param_st) align 8 %6, ptr noundef @.str.2, ptr noundef %14, i64 noundef 0)
  call void @llvm.memcpy.p0.p0.i64(ptr align 16 @opparam, ptr align 8 %6, i64 40, i1 false), !tbaa.struct !9
  call void @llvm.lifetime.end.p0(i64 40, ptr %6) #6
  call void @llvm.lifetime.start.p0(i64 40, ptr %7) #6
  call void @OSSL_PARAM_construct_end(ptr dead_on_unwind writable sret(%struct.ossl_param_st) align 8 %7)
  call void @llvm.memcpy.p0.p0.i64(ptr align 8 getelementptr inbounds ([2 x %struct.ossl_param_st], ptr @opparam, i64 0, i64 1), ptr align 8 %7, i64 40, i1 false), !tbaa.struct !9
  call void @llvm.lifetime.end.p0(i64 40, ptr %7) #6
  %15 = load ptr, ptr @libctx, align 8, !tbaa !15
  %16 = call ptr (ptr, ptr, ptr, ...) @EVP_PKEY_Q_keygen(ptr noundef %15, ptr noundef null, ptr noundef @.str.5, ptr noundef @.str.6)
  store ptr %16, ptr @rkey, align 16, !tbaa !17
  %17 = call i32 @test_ptr(ptr noundef @.str.3, i32 noundef 800, ptr noundef @.str.4, ptr noundef %16)
  %18 = icmp ne i32 %17, 0
  br i1 %18, label %20, label %19

19:                                               ; preds = %13
  br label %41

20:                                               ; preds = %13
  %21 = load ptr, ptr @libctx, align 8, !tbaa !15
  %22 = call ptr (ptr, ptr, ptr, ...) @EVP_PKEY_Q_keygen(ptr noundef %21, ptr noundef null, ptr noundef @.str.8)
  store ptr %22, ptr getelementptr inbounds ([2 x ptr], ptr @rkey, i64 0, i64 1), align 8, !tbaa !17
  %23 = call i32 @test_ptr(ptr noundef @.str.3, i32 noundef 804, ptr noundef @.str.7, ptr noundef %22)
  %24 = icmp ne i32 %23, 0
  br i1 %24, label %26, label %25

25:                                               ; preds = %20
  br label %41

26:                                               ; preds = %20
  %27 = load ptr, ptr @libctx, align 8, !tbaa !15
  %28 = load ptr, ptr @rkey, align 16, !tbaa !17
  %29 = call ptr @EVP_PKEY_CTX_new_from_pkey(ptr noundef %27, ptr noundef %28, ptr noundef null)
  store ptr %29, ptr @rctx, align 16, !tbaa !19
  %30 = call i32 @test_ptr(ptr noundef @.str.3, i32 noundef 809, ptr noundef @.str.9, ptr noundef %29)
  %31 = icmp ne i32 %30, 0
  br i1 %31, label %33, label %32

32:                                               ; preds = %26
  br label %41

33:                                               ; preds = %26
  %34 = load ptr, ptr @libctx, align 8, !tbaa !15
  %35 = load ptr, ptr getelementptr inbounds ([2 x ptr], ptr @rkey, i64 0, i64 1), align 8, !tbaa !17
  %36 = call ptr @EVP_PKEY_CTX_new_from_pkey(ptr noundef %34, ptr noundef %35, ptr noundef null)
  store ptr %36, ptr getelementptr inbounds ([2 x ptr], ptr @rctx, i64 0, i64 1), align 8, !tbaa !19
  %37 = call i32 @test_ptr(ptr noundef @.str.3, i32 noundef 814, ptr noundef @.str.10, ptr noundef %36)
  %38 = icmp ne i32 %37, 0
  br i1 %38, label %40, label %39

39:                                               ; preds = %33
  br label %41

40:                                               ; preds = %33
  call void @add_all_tests(ptr noundef @.str.11, ptr noundef @test_dhkem_encapsulate, i32 noundef 5, i32 noundef 1)
  call void @add_all_tests(ptr noundef @.str.12, ptr noundef @test_dhkem_decapsulate, i32 noundef 5, i32 noundef 1)
  call void @add_all_tests(ptr noundef @.str.13, ptr noundef @test_settables, i32 noundef 2, i32 noundef 1)
  call void @add_all_tests(ptr noundef @.str.14, ptr noundef @test_init_multiple, i32 noundef 2, i32 noundef 1)
  call void @add_all_tests(ptr noundef @.str.15, ptr noundef @test_auth_key_type_mismatch, i32 noundef 2, i32 noundef 1)
  call void @add_all_tests(ptr noundef @.str.16, ptr noundef @test_no_operation_set, i32 noundef 2, i32 noundef 1)
  call void @add_all_tests(ptr noundef @.str.17, ptr noundef @test_ikm_small, i32 noundef 2, i32 noundef 1)
  call void @add_all_tests(ptr noundef @.str.18, ptr noundef @test_input_size_small, i32 noundef 2, i32 noundef 1)
  call void @add_all_tests(ptr noundef @.str.19, ptr noundef @test_null_params, i32 noundef 2, i32 noundef 1)
  call void @add_all_tests(ptr noundef @.str.20, ptr noundef @test_set_params, i32 noundef 2, i32 noundef 1)
  call void @add_all_tests(ptr noundef @.str.21, ptr noundef @test_nopublic, i32 noundef 4, i32 noundef 1)
  call void @add_all_tests(ptr noundef @.str.22, ptr noundef @test_noauthpublic, i32 noundef 4, i32 noundef 1)
  call void @add_all_tests(ptr noundef @.str.23, ptr noundef @test_ec_dhkem_derivekey, i32 noundef 3, i32 noundef 1)
  call void @add_all_tests(ptr noundef @.str.24, ptr noundef @test_ec_noikme, i32 noundef 10, i32 noundef 1)
  call void @add_test(ptr noundef @.str.25, ptr noundef @test_ec_auth_key_curve_mismatch)
  call void @add_test(ptr noundef @.str.26, ptr noundef @test_ec_invalid_private_key)
  call void @add_test(ptr noundef @.str.27, ptr noundef @test_ec_dhkem_derivekey_fail)
  call void @add_test(ptr noundef @.str.28, ptr noundef @test_ec_curve_nonnist)
  call void @add_test(ptr noundef @.str.29, ptr noundef @test_ec_curve_unsupported)
  call void @add_test(ptr noundef @.str.30, ptr noundef @test_ec_invalid_decap_enc_buffer)
  call void @add_test(ptr noundef @.str.31, ptr noundef @test_ec_public_key_infinity)
  call void @add_all_tests(ptr noundef @.str.32, ptr noundef @test_ec_badpublic, i32 noundef 2, i32 noundef 1)
  call void @add_all_tests(ptr noundef @.str.33, ptr noundef @test_ec_badauth, i32 noundef 2, i32 noundef 1)
  call void @add_all_tests(ptr noundef @.str.34, ptr noundef @test_ecx_dhkem_derivekey, i32 noundef 2, i32 noundef 1)
  call void @add_test(ptr noundef @.str.35, ptr noundef @test_ecx_auth_key_curve_mismatch)
  call void @add_test(ptr noundef @.str.36, ptr noundef @test_ed_curve_unsupported)
  store i32 1, ptr %1, align 4
  store i32 1, ptr %5, align 4
  br label %42

41:                                               ; preds = %39, %32, %25, %19
  store i32 0, ptr %1, align 4
  store i32 1, ptr %5, align 4
  br label %42

42:                                               ; preds = %41, %40, %12
  call void @llvm.lifetime.end.p0(i64 8, ptr %4) #6
  call void @llvm.lifetime.end.p0(i64 8, ptr %3) #6
  call void @llvm.lifetime.end.p0(i64 8, ptr %2) #6
  %43 = load i32, ptr %1, align 4
  ret i32 %43
}