; Function Attrs: nounwind uwtable
define dso_local range(i32 0, 2) i32 @setup_tests() local_unnamed_addr #0 {
  %1 = alloca %struct.ossl_param_st, align 8
  %2 = alloca %struct.ossl_param_st, align 8
  %3 = tail call i32 @test_get_libctx(ptr noundef nonnull @libctx, ptr noundef nonnull @nullprov, ptr noundef null, ptr noundef nonnull @libprov, ptr noundef nonnull @.str) #5
  %.not = icmp eq i32 %3, 0
  br i1 %.not, label %23, label %4

4:                                                ; preds = %0
  call void @llvm.lifetime.start.p0(i64 40, ptr nonnull %1) #5
  call void @OSSL_PARAM_construct_utf8_string(ptr dead_on_unwind nonnull writable sret(%struct.ossl_param_st) align 8 %1, ptr noundef nonnull @.str.2, ptr noundef nonnull @.str.1, i64 noundef 0) #5
  call void @llvm.memcpy.p0.p0.i64(ptr noundef nonnull align 16 dereferenceable(40) @opparam, ptr noundef nonnull align 8 dereferenceable(40) %1, i64 40, i1 false), !tbaa.struct !4
  call void @llvm.lifetime.end.p0(i64 40, ptr nonnull %1) #5
  call void @llvm.lifetime.start.p0(i64 40, ptr nonnull %2) #5
  call void @OSSL_PARAM_construct_end(ptr dead_on_unwind nonnull writable sret(%struct.ossl_param_st) align 8 %2) #5
  call void @llvm.memcpy.p0.p0.i64(ptr noundef nonnull align 8 dereferenceable(40) getelementptr inbounds nuw (i8, ptr @opparam, i64 40), ptr noundef nonnull align 8 dereferenceable(40) %2, i64 40, i1 false), !tbaa.struct !4
  call void @llvm.lifetime.end.p0(i64 40, ptr nonnull %2) #5
  %5 = load ptr, ptr @libctx, align 8, !tbaa !15
  %6 = call ptr (ptr, ptr, ptr, ...) @EVP_PKEY_Q_keygen(ptr noundef %5, ptr noundef null, ptr noundef nonnull @.str.5, ptr noundef nonnull @.str.6) #5
  store ptr %6, ptr @rkey, align 16, !tbaa !17
  %7 = call i32 @test_ptr(ptr noundef nonnull @.str.3, i32 noundef 800, ptr noundef nonnull @.str.4, ptr noundef %6) #5
  %.not3 = icmp eq i32 %7, 0
  br i1 %.not3, label %23, label %8

8:                                                ; preds = %4
  %9 = load ptr, ptr @libctx, align 8, !tbaa !15
  %10 = call ptr (ptr, ptr, ptr, ...) @EVP_PKEY_Q_keygen(ptr noundef %9, ptr noundef null, ptr noundef nonnull @.str.8) #5
  store ptr %10, ptr getelementptr inbounds nuw (i8, ptr @rkey, i64 8), align 8, !tbaa !17
  %11 = call i32 @test_ptr(ptr noundef nonnull @.str.3, i32 noundef 804, ptr noundef nonnull @.str.7, ptr noundef %10) #5
  %.not4 = icmp eq i32 %11, 0
  br i1 %.not4, label %23, label %12

12:                                               ; preds = %8
  %13 = load ptr, ptr @libctx, align 8, !tbaa !15
  %14 = load ptr, ptr @rkey, align 16, !tbaa !17
  %15 = call ptr @EVP_PKEY_CTX_new_from_pkey(ptr noundef %13, ptr noundef %14, ptr noundef null) #5
  store ptr %15, ptr @rctx, align 16, !tbaa !19
  %16 = call i32 @test_ptr(ptr noundef nonnull @.str.3, i32 noundef 809, ptr noundef nonnull @.str.9, ptr noundef %15) #5
  %.not5 = icmp eq i32 %16, 0
  br i1 %.not5, label %23, label %17

17:                                               ; preds = %12
  %18 = load ptr, ptr @libctx, align 8, !tbaa !15
  %19 = load ptr, ptr getelementptr inbounds nuw (i8, ptr @rkey, i64 8), align 8, !tbaa !17
  %20 = call ptr @EVP_PKEY_CTX_new_from_pkey(ptr noundef %18, ptr noundef %19, ptr noundef null) #5
  store ptr %20, ptr getelementptr inbounds nuw (i8, ptr @rctx, i64 8), align 8, !tbaa !19
  %21 = call i32 @test_ptr(ptr noundef nonnull @.str.3, i32 noundef 814, ptr noundef nonnull @.str.10, ptr noundef %20) #5
  %.not6 = icmp eq i32 %21, 0
  br i1 %.not6, label %23, label %22

22:                                               ; preds = %17
  call void @add_all_tests(ptr noundef nonnull @.str.11, ptr noundef nonnull @test_dhkem_encapsulate, i32 noundef 5, i32 noundef 1) #5
  call void @add_all_tests(ptr noundef nonnull @.str.12, ptr noundef nonnull @test_dhkem_decapsulate, i32 noundef 5, i32 noundef 1) #5
  call void @add_all_tests(ptr noundef nonnull @.str.13, ptr noundef nonnull @test_settables, i32 noundef 2, i32 noundef 1) #5
  call void @add_all_tests(ptr noundef nonnull @.str.14, ptr noundef nonnull @test_init_multiple, i32 noundef 2, i32 noundef 1) #5
  call void @add_all_tests(ptr noundef nonnull @.str.15, ptr noundef nonnull @test_auth_key_type_mismatch, i32 noundef 2, i32 noundef 1) #5
  call void @add_all_tests(ptr noundef nonnull @.str.16, ptr noundef nonnull @test_no_operation_set, i32 noundef 2, i32 noundef 1) #5
  call void @add_all_tests(ptr noundef nonnull @.str.17, ptr noundef nonnull @test_ikm_small, i32 noundef 2, i32 noundef 1) #5
  call void @add_all_tests(ptr noundef nonnull @.str.18, ptr noundef nonnull @test_input_size_small, i32 noundef 2, i32 noundef 1) #5
  call void @add_all_tests(ptr noundef nonnull @.str.19, ptr noundef nonnull @test_null_params, i32 noundef 2, i32 noundef 1) #5
  call void @add_all_tests(ptr noundef nonnull @.str.20, ptr noundef nonnull @test_set_params, i32 noundef 2, i32 noundef 1) #5
  call void @add_all_tests(ptr noundef nonnull @.str.21, ptr noundef nonnull @test_nopublic, i32 noundef 4, i32 noundef 1) #5
  call void @add_all_tests(ptr noundef nonnull @.str.22, ptr noundef nonnull @test_noauthpublic, i32 noundef 4, i32 noundef 1) #5
  call void @add_all_tests(ptr noundef nonnull @.str.23, ptr noundef nonnull @test_ec_dhkem_derivekey, i32 noundef 3, i32 noundef 1) #5
  call void @add_all_tests(ptr noundef nonnull @.str.24, ptr noundef nonnull @test_ec_noikme, i32 noundef 10, i32 noundef 1) #5
  call void @add_test(ptr noundef nonnull @.str.25, ptr noundef nonnull @test_ec_auth_key_curve_mismatch) #5
  call void @add_test(ptr noundef nonnull @.str.26, ptr noundef nonnull @test_ec_invalid_private_key) #5
  call void @add_test(ptr noundef nonnull @.str.27, ptr noundef nonnull @test_ec_dhkem_derivekey_fail) #5
  call void @add_test(ptr noundef nonnull @.str.28, ptr noundef nonnull @test_ec_curve_nonnist) #5
  call void @add_test(ptr noundef nonnull @.str.29, ptr noundef nonnull @test_ec_curve_unsupported) #5
  call void @add_test(ptr noundef nonnull @.str.30, ptr noundef nonnull @test_ec_invalid_decap_enc_buffer) #5
  call void @add_test(ptr noundef nonnull @.str.31, ptr noundef nonnull @test_ec_public_key_infinity) #5
  call void @add_all_tests(ptr noundef nonnull @.str.32, ptr noundef nonnull @test_ec_badpublic, i32 noundef 2, i32 noundef 1) #5
  call void @add_all_tests(ptr noundef nonnull @.str.33, ptr noundef nonnull @test_ec_badauth, i32 noundef 2, i32 noundef 1) #5
  call void @add_all_tests(ptr noundef nonnull @.str.34, ptr noundef nonnull @test_ecx_dhkem_derivekey, i32 noundef 2, i32 noundef 1) #5
  call void @add_test(ptr noundef nonnull @.str.35, ptr noundef nonnull @test_ecx_auth_key_curve_mismatch) #5
  call void @add_test(ptr noundef nonnull @.str.36, ptr noundef nonnull @test_ed_curve_unsupported) #5
  br label %23

23:                                               ; preds = %4, %8, %12, %17, %0, %22
  %.0 = phi i32 [ 1, %22 ], [ 0, %0 ], [ 0, %17 ], [ 0, %12 ], [ 0, %8 ], [ 0, %4 ]
  ret i32 %.0
}